target datalayout = "e-m:e-p270:32:32-p271:32:32-p272:64:64-i64:64-i128:128-f80:128-n8:16:32:64-S128"
target triple = "x86_64-pc-linux-gnu"

%struct.Agobj_s = type { %struct.Agtag_s, ptr }
%struct.Agtag_s = type { i32, i64 }
%struct.Agnodeinfo_t = type { %struct.Agrec_s, ptr, ptr, %struct.pointf_s, double, double, %struct.boxf, double, double, double, double, double, ptr, ptr, ptr, i8, i8, i8, i8, i32, i32, i32, ptr, double, i8, i8, ptr, ptr, i8, i64, i8, i8, i8, ptr, ptr, %struct.elist, %struct.elist, %struct.elist, %struct.elist, %struct.elist, ptr, i32, ptr, i32, i32, double, %struct.elist, %struct.elist, %struct.elist, %struct.elist, ptr, i32, i32, i32, [1 x double] }
%struct.Agrec_s = type { ptr, ptr }
%struct.pointf_s = type { double, double }
%struct.boxf = type { %struct.pointf_s, %struct.pointf_s }
%struct.elist = type { ptr, i64 }
%struct.rdata = type { i64, i64, i64, i64, ptr, double, double }
%struct.Agedge_s = type { %struct.Agobj_s, %struct.dtlink_s_, %struct.dtlink_s_, ptr }
%struct.dtlink_s_ = type { ptr, %union.anon }
%union.anon = type { ptr }

; Function Attrs: inlinehint nounwind uwtable
define internal zeroext i1 @is_exactly_equal(double noundef %0, double noundef %1) #5 {
  %3 = alloca double, align 8
  %4 = alloca double, align 8
  store double %0, ptr %3, align 8, !tbaa !30
  store double %1, ptr %4, align 8, !tbaa !30
  %5 = call i32 @memcmp(ptr noundef %3, ptr noundef %4, i64 noundef 8) #14
  %6 = icmp eq i32 %5, 0
  ret i1 %6
}

; Function Attrs: nounwind uwtable
define internal zeroext i1 @is_set(double noundef %0) #0 {
  %2 = alloca double, align 8
  store double %0, ptr %2, align 8, !tbaa !30
  %3 = load double, ptr %2, align 8, !tbaa !30
  %4 = call zeroext i1 @is_exactly_equal(double noundef %3, double noundef 1.000000e+01)
  %5 = xor i1 %4, true
  ret i1 %5
}

; Function Attrs: nounwind uwtable
define internal void @setChildPositions(ptr noundef %0, ptr noundef %1) #0 {
  %3 = alloca ptr, align 8
  %4 = alloca ptr, align 8
  %5 = alloca ptr, align 8
  %6 = alloca double, align 8
  %7 = alloca ptr, align 8
  store ptr %0, ptr %3, align 8, !tbaa !3
  store ptr %1, ptr %4, align 8, !tbaa !8
  call void @llvm.lifetime.start.p0(i64 8, ptr %5) #13
  call void @llvm.lifetime.start.p0(i64 8, ptr %6) #13
  %8 = load ptr, ptr %4, align 8, !tbaa !8
  %9 = getelementptr inbounds nuw %struct.Agobj_s, ptr %8, i32 0, i32 1
  %10 = load ptr, ptr %9, align 8, !tbaa !10
  %11 = getelementptr inbounds nuw %struct.Agnodeinfo_t, ptr %10, i32 0, i32 14
  %12 = load ptr, ptr %11, align 8, !tbaa !36
  %13 = getelementptr inbounds nuw %struct.rdata, ptr %12, i32 0, i32 4
  %14 = load ptr, ptr %13, align 8, !tbaa !45
  %15 = icmp eq ptr %14, null
  br i1 %15, label %16, label %17

16:                                               ; preds = %2
  store double 0.000000e+00, ptr %6, align 8, !tbaa !30
  br label %34

17:                                               ; preds = %2
  %18 = load ptr, ptr %4, align 8, !tbaa !8
  %19 = getelementptr inbounds nuw %struct.Agobj_s, ptr %18, i32 0, i32 1
  %20 = load ptr, ptr %19, align 8, !tbaa !10
  %21 = getelementptr inbounds nuw %struct.Agnodeinfo_t, ptr %20, i32 0, i32 14
  %22 = load ptr, ptr %21, align 8, !tbaa !36
  %23 = getelementptr inbounds nuw %struct.rdata, ptr %22, i32 0, i32 6
  %24 = load double, ptr %23, align 8, !tbaa !39
  %25 = load ptr, ptr %4, align 8, !tbaa !8
  %26 = getelementptr inbounds nuw %struct.Agobj_s, ptr %25, i32 0, i32 1
  %27 = load ptr, ptr %26, align 8, !tbaa !10
  %28 = getelementptr inbounds nuw %struct.Agnodeinfo_t, ptr %27, i32 0, i32 14
  %29 = load ptr, ptr %28, align 8, !tbaa !36
  %30 = getelementptr inbounds nuw %struct.rdata, ptr %29, i32 0, i32 5
  %31 = load double, ptr %30, align 8, !tbaa !51
  %32 = fdiv double %31, 2.000000e+00
  %33 = fsub double %24, %32
  store double %33, ptr %6, align 8, !tbaa !30
  br label %34

34:                                               ; preds = %17, %16
  call void @llvm.lifetime.start.p0(i64 8, ptr %7) #13
  %35 = load ptr, ptr %3, align 8, !tbaa !3
  %36 = load ptr, ptr %4, align 8, !tbaa !8
  %37 = call ptr @agfstedge(ptr noundef %35, ptr noundef %36)
  store ptr %37, ptr %7, align 8, !tbaa !55
  br label %38

38:                                               ; preds = %133, %34
  %39 = load ptr, ptr %7, align 8, !tbaa !55
  %40 = icmp ne ptr %39, null
  br i1 %40, label %42, label %41

41:                                               ; preds = %38
  call void @llvm.lifetime.end.p0(i64 8, ptr %7) #13
  br label %138

42:                                               ; preds = %38
  %43 = load ptr, ptr %7, align 8, !tbaa !55
  %44 = getelementptr inbounds nuw %struct.Agobj_s, ptr %43, i32 0, i32 0
  %45 = load i32, ptr %44, align 8
  %46 = and i32 %45, 3
  %47 = icmp eq i32 %46, 3
  br i1 %47, label %48, label %50

48:                                               ; preds = %42
  %49 = load ptr, ptr %7, align 8, !tbaa !55
  br label %53

50:                                               ; preds = %42
  %51 = load ptr, ptr %7, align 8, !tbaa !55
  %52 = getelementptr inbounds %struct.Agedge_s, ptr %51, i64 1
  br label %53

53:                                               ; preds = %50, %48
  %54 = phi ptr [ %49, %48 ], [ %52, %50 ]
  %55 = getelementptr inbounds nuw %struct.Agedge_s, ptr %54, i32 0, i32 3
  %56 = load ptr, ptr %55, align 8, !tbaa !56
  store ptr %56, ptr %5, align 8, !tbaa !8
  %57 = load ptr, ptr %4, align 8, !tbaa !8
  %58 = icmp eq ptr %56, %57
  br i1 %58, label %59, label %74

59:                                               ; preds = %53
  %60 = load ptr, ptr %7, align 8, !tbaa !55
  %61 = getelementptr inbounds nuw %struct.Agobj_s, ptr %60, i32 0, i32 0
  %62 = load i32, ptr %61, align 8
  %63 = and i32 %62, 3
  %64 = icmp eq i32 %63, 2
  br i1 %64, label %65, label %67

65:                                               ; preds = %59
  %66 = load ptr, ptr %7, align 8, !tbaa !55
  br label %70

67:                                               ; preds = %59
  %68 = load ptr, ptr %7, align 8, !tbaa !55
  %69 = getelementptr inbounds %struct.Agedge_s, ptr %68, i64 -1
  br label %70

70:                                               ; preds = %67, %65
  %71 = phi ptr [ %66, %65 ], [ %69, %67 ]
  %72 = getelementptr inbounds nuw %struct.Agedge_s, ptr %71, i32 0, i32 3
  %73 = load ptr, ptr %72, align 8, !tbaa !56
  store ptr %73, ptr %5, align 8, !tbaa !8
  br label %74

74:                                               ; preds = %70, %53
  %75 = load ptr, ptr %5, align 8, !tbaa !8
  %76 = getelementptr inbounds nuw %struct.Agobj_s, ptr %75, i32 0, i32 1
  %77 = load ptr, ptr %76, align 8, !tbaa !10
  %78 = getelementptr inbounds nuw %struct.Agnodeinfo_t, ptr %77, i32 0, i32 14
  %79 = load ptr, ptr %78, align 8, !tbaa !36
  %80 = getelementptr inbounds nuw %struct.rdata, ptr %79, i32 0, i32 4
  %81 = load ptr, ptr %80, align 8, !tbaa !45
  %82 = load ptr, ptr %4, align 8, !tbaa !8
  %83 = icmp ne ptr %81, %82
  br i1 %83, label %84, label %85

84:                                               ; preds = %74
  br label %133

85:                                               ; preds = %74
  %86 = load ptr, ptr %5, align 8, !tbaa !8
  %87 = getelementptr inbounds nuw %struct.Agobj_s, ptr %86, i32 0, i32 1
  %88 = load ptr, ptr %87, align 8, !tbaa !10
  %89 = getelementptr inbounds nuw %struct.Agnodeinfo_t, ptr %88, i32 0, i32 14
  %90 = load ptr, ptr %89, align 8, !tbaa !36
  %91 = getelementptr inbounds nuw %struct.rdata, ptr %90, i32 0, i32 6
  %92 = load double, ptr %91, align 8, !tbaa !39
  %93 = call zeroext i1 @is_set(double noundef %92)
  br i1 %93, label %94, label %95

94:                                               ; preds = %85
  br label %133

95:                                               ; preds = %85
  %96 = load double, ptr %6, align 8, !tbaa !30
  %97 = load ptr, ptr %5, align 8, !tbaa !8
  %98 = getelementptr inbounds nuw %struct.Agobj_s, ptr %97, i32 0, i32 1
  %99 = load ptr, ptr %98, align 8, !tbaa !10
  %100 = getelementptr inbounds nuw %struct.Agnodeinfo_t, ptr %99, i32 0, i32 14
  %101 = load ptr, ptr %100, align 8, !tbaa !36
  %102 = getelementptr inbounds nuw %struct.rdata, ptr %101, i32 0, i32 5
  %103 = load double, ptr %102, align 8, !tbaa !51
  %104 = fdiv double %103, 2.000000e+00
  %105 = fadd double %96, %104
  %106 = load ptr, ptr %5, align 8, !tbaa !8
  %107 = getelementptr inbounds nuw %struct.Agobj_s, ptr %106, i32 0, i32 1
  %108 = load ptr, ptr %107, align 8, !tbaa !10
  %109 = getelementptr inbounds nuw %struct.Agnodeinfo_t, ptr %108, i32 0, i32 14
  %110 = load ptr, ptr %109, align 8, !tbaa !36
  %111 = getelementptr inbounds nuw %struct.rdata, ptr %110, i32 0, i32 6
  store double %105, ptr %111, align 8, !tbaa !39
  %112 = load ptr, ptr %5, align 8, !tbaa !8
  %113 = getelementptr inbounds nuw %struct.Agobj_s, ptr %112, i32 0, i32 1
  %114 = load ptr, ptr %113, align 8, !tbaa !10
  %115 = getelementptr inbounds nuw %struct.Agnodeinfo_t, ptr %114, i32 0, i32 14
  %116 = load ptr, ptr %115, align 8, !tbaa !36
  %117 = getelementptr inbounds nuw %struct.rdata, ptr %116, i32 0, i32 5
  %118 = load double, ptr %117, align 8, !tbaa !51
  %119 = load double, ptr %6, align 8, !tbaa !30
  %120 = fadd double %119, %118
  store double %120, ptr %6, align 8, !tbaa !30
  %121 = load ptr, ptr %5, align 8, !tbaa !8
  %122 = getelementptr inbounds nuw %struct.Agobj_s, ptr %121, i32 0, i32 1
  %123 = load ptr, ptr %122, align 8, !tbaa !10
  %124 = getelementptr inbounds nuw %struct.Agnodeinfo_t, ptr %123, i32 0, i32 14
  %125 = load ptr, ptr %124, align 8, !tbaa !36
  %126 = getelementptr inbounds nuw %struct.rdata, ptr %125, i32 0, i32 2
  %127 = load i64, ptr %126, align 8, !tbaa !47
  %128 = icmp ugt i64 %127, 0
  br i1 %128, label %129, label %132

129:                                              ; preds = %95
  %130 = load ptr, ptr %3, align 8, !tbaa !3
  %131 = load ptr, ptr %5, align 8, !tbaa !8
  call void @setChildPositions(ptr noundef %130, ptr noundef %131)
  br label %132

132:                                              ; preds = %129, %95
  br label %133

133:                                              ; preds = %132, %94, %84
  %134 = load ptr, ptr %3, align 8, !tbaa !3
  %135 = load ptr, ptr %7, align 8, !tbaa !55
  %136 = load ptr, ptr %4, align 8, !tbaa !8
  %137 = call ptr @agnxtedge(ptr noundef %134, ptr noundef %135, ptr noundef %136)
  store ptr %137, ptr %7, align 8, !tbaa !55
  br label %38, !llvm.loop !77

138:                                              ; preds = %41
  call void @llvm.lifetime.end.p0(i64 8, ptr %6) #13
  call void @llvm.lifetime.end.p0(i64 8, ptr %5) #13
  ret void
}