; Function Attrs: nounwind uwtable
define internal fastcc void @setChildPositions(ptr noundef %0, ptr noundef %1) unnamed_addr #0 {
  %3 = getelementptr inbounds nuw i8, ptr %1, i64 16
  %4 = load ptr, ptr %3, align 8, !tbaa !3
  %5 = getelementptr inbounds nuw i8, ptr %4, i64 152
  %6 = load ptr, ptr %5, align 8, !tbaa !28
  %7 = getelementptr inbounds nuw i8, ptr %6, i64 32
  %8 = load ptr, ptr %7, align 8, !tbaa !46
  %9 = icmp eq ptr %8, null
  br i1 %9, label %17, label %10

10:                                               ; preds = %2
  %11 = getelementptr inbounds nuw i8, ptr %6, i64 48
  %12 = load double, ptr %11, align 8, !tbaa !31
  %13 = getelementptr inbounds nuw i8, ptr %6, i64 40
  %14 = load double, ptr %13, align 8, !tbaa !54
  %15 = fmul double %14, 5.000000e-01
  %16 = fsub double %12, %15
  br label %17

17:                                               ; preds = %2, %10
  %.027 = phi double [ %16, %10 ], [ 0.000000e+00, %2 ]
  %18 = tail call ptr @agfstedge(ptr noundef %0, ptr noundef nonnull %1) #18
  %.not33 = icmp eq ptr %18, null
  br i1 %.not33, label %._crit_edge, label %.lr.ph

._crit_edge:                                      ; preds = %50, %17
  ret void

.lr.ph:                                           ; preds = %17, %50
  %.035 = phi ptr [ %51, %50 ], [ %18, %17 ]
  %.134 = phi double [ %.2, %50 ], [ %.027, %17 ]
  %19 = load i32, ptr %.035, align 8
  %20 = and i32 %19, 3
  %21 = icmp eq i32 %20, 3
  %.idx = select i1 %21, i64 0, i64 64
  %22 = getelementptr inbounds nuw i8, ptr %.035, i64 %.idx
  %23 = getelementptr inbounds nuw i8, ptr %22, i64 56
  %24 = load ptr, ptr %23, align 8, !tbaa !32
  %25 = icmp eq ptr %24, %1
  br i1 %25, label %26, label %31

26:                                               ; preds = %.lr.ph
  %27 = icmp eq i32 %20, 2
  %.idx30 = select i1 %27, i64 0, i64 -64
  %28 = getelementptr inbounds i8, ptr %.035, i64 %.idx30
  %29 = getelementptr inbounds nuw i8, ptr %28, i64 56
  %30 = load ptr, ptr %29, align 8, !tbaa !32
  br label %31

31:                                               ; preds = %26, %.lr.ph
  %.028 = phi ptr [ %30, %26 ], [ %24, %.lr.ph ]
  %32 = getelementptr inbounds nuw i8, ptr %.028, i64 16
  %33 = load ptr, ptr %32, align 8, !tbaa !3
  %34 = getelementptr inbounds nuw i8, ptr %33, i64 152
  %35 = load ptr, ptr %34, align 8, !tbaa !28
  %36 = getelementptr inbounds nuw i8, ptr %35, i64 32
  %37 = load ptr, ptr %36, align 8, !tbaa !46
  %.not31 = icmp eq ptr %37, %1
  br i1 %.not31, label %38, label %50

38:                                               ; preds = %31
  %39 = getelementptr inbounds nuw i8, ptr %35, i64 48
  %40 = load i64, ptr %39, align 8, !tbaa !31
  %.not.i.i.not = icmp eq i64 %40, 4621819117588971520
  br i1 %.not.i.i.not, label %41, label %50

41:                                               ; preds = %38
  %42 = getelementptr inbounds nuw i8, ptr %35, i64 40
  %43 = load double, ptr %42, align 8, !tbaa !54
  %44 = fmul double %43, 5.000000e-01
  %45 = fadd double %.134, %44
  store double %45, ptr %39, align 8, !tbaa !31
  %46 = fadd double %.134, %43
  %47 = getelementptr inbounds nuw i8, ptr %35, i64 16
  %48 = load i64, ptr %47, align 8, !tbaa !47
  %.not32 = icmp eq i64 %48, 0
  br i1 %.not32, label %50, label %49

49:                                               ; preds = %41
  tail call fastcc void @setChildPositions(ptr noundef %0, ptr noundef nonnull %.028)
  br label %50

50:                                               ; preds = %41, %49, %38, %31
  %.2 = phi double [ %.134, %31 ], [ %.134, %38 ], [ %46, %49 ], [ %46, %41 ]
  %51 = tail call ptr @agnxtedge(ptr noundef %0, ptr noundef nonnull %.035, ptr noundef nonnull %1) #18
  %.not = icmp eq ptr %51, null
  br i1 %.not, label %._crit_edge, label %.lr.ph, !llvm.loop !71
}